; Function Attrs: mustprogress uwtable
define void @_Z15get_center_commPK9t_commrecPA3_fPfiiS4_(ptr noundef %0, ptr noundef readonly captures(none) %1, ptr noundef readonly %2, i32 noundef %3, i32 noundef %4, ptr noundef writeonly captures(none) %5) local_unnamed_addr #0 {
  %7 = alloca [4 x double], align 16
  call void @llvm.lifetime.start.p0(i64 32, ptr nonnull %7) #10
  %.not.i = icmp eq ptr %2, null
  %8 = icmp sgt i32 %3, 0
  br i1 %.not.i, label %.preheader.i, label %.preheader30.i

.preheader30.i:                                   ; preds = %6
  br i1 %8, label %.lr.ph.i, label %_Z20get_sum_of_positionsPA3_KfPfiPd.exit

.lr.ph.i:                                         ; preds = %.preheader30.i
  %wide.trip.count.i = zext nneg i32 %3 to i64
  br label %9

.preheader.i:                                     ; preds = %6
  br i1 %8, label %.lr.ph39.i, label %_Z20get_sum_of_positionsPA3_KfPfiPd.exit

.lr.ph39.i:                                       ; preds = %.preheader.i
  %wide.trip.count56.i = zext nneg i32 %3 to i64
  br label %32

9:                                                ; preds = %9, %.lr.ph.i
  %indvars.iv.i = phi i64 [ 0, %.lr.ph.i ], [ %indvars.iv.next.i, %9 ]
  %10 = phi double [ 0.000000e+00, %.lr.ph.i ], [ %31, %9 ]
  %11 = phi double [ 0.000000e+00, %.lr.ph.i ], [ %29, %9 ]
  %12 = phi double [ 0.000000e+00, %.lr.ph.i ], [ %27, %9 ]
  %.033.i = phi double [ 0.000000e+00, %.lr.ph.i ], [ %16, %9 ]
  %13 = getelementptr inbounds nuw float, ptr %2, i64 %indvars.iv.i
  %14 = load float, ptr %13, align 4, !tbaa !37
  %15 = fpext float %14 to double
  %16 = fadd double %.033.i, %15
  %17 = getelementptr inbounds nuw [3 x float], ptr %1, i64 %indvars.iv.i
  %18 = load float, ptr %17, align 4, !tbaa !37
  %19 = fmul float %14, %18
  %20 = getelementptr inbounds nuw i8, ptr %17, i64 4
  %21 = load float, ptr %20, align 4, !tbaa !37
  %22 = fmul float %14, %21
  %23 = getelementptr inbounds nuw i8, ptr %17, i64 8
  %24 = load float, ptr %23, align 4, !tbaa !37
  %25 = fmul float %14, %24
  %26 = fpext float %19 to double
  %27 = fadd double %12, %26
  %28 = fpext float %22 to double
  %29 = fadd double %11, %28
  %30 = fpext float %25 to double
  %31 = fadd double %10, %30
  %indvars.iv.next.i = add nuw nsw i64 %indvars.iv.i, 1
  %exitcond.not.i = icmp eq i64 %indvars.iv.next.i, %wide.trip.count.i
  br i1 %exitcond.not.i, label %_Z20get_sum_of_positionsPA3_KfPfiPd.exit, label %9, !llvm.loop !68

32:                                               ; preds = %32, %.lr.ph39.i
  %indvars.iv53.i = phi i64 [ 0, %.lr.ph39.i ], [ %indvars.iv.next54.i, %32 ]
  %33 = phi double [ 0.000000e+00, %.lr.ph39.i ], [ %47, %32 ]
  %34 = phi double [ 0.000000e+00, %.lr.ph39.i ], [ %43, %32 ]
  %35 = phi double [ 0.000000e+00, %.lr.ph39.i ], [ %39, %32 ]
  %36 = getelementptr inbounds nuw [3 x float], ptr %1, i64 %indvars.iv53.i
  %37 = load float, ptr %36, align 4, !tbaa !37
  %38 = fpext float %37 to double
  %39 = fadd double %35, %38
  %40 = getelementptr inbounds nuw i8, ptr %36, i64 4
  %41 = load float, ptr %40, align 4, !tbaa !37
  %42 = fpext float %41 to double
  %43 = fadd double %34, %42
  %44 = getelementptr inbounds nuw i8, ptr %36, i64 8
  %45 = load float, ptr %44, align 4, !tbaa !37
  %46 = fpext float %45 to double
  %47 = fadd double %33, %46
  %indvars.iv.next54.i = add nuw nsw i64 %indvars.iv53.i, 1
  %exitcond57.not.i = icmp eq i64 %indvars.iv.next54.i, %wide.trip.count56.i
  br i1 %exitcond57.not.i, label %_Z20get_sum_of_positionsPA3_KfPfiPd.exit, label %32, !llvm.loop !69

_Z20get_sum_of_positionsPA3_KfPfiPd.exit:         ; preds = %9, %32, %.preheader30.i, %.preheader.i
  %.sroa.0.1 = phi double [ 0.000000e+00, %.preheader.i ], [ 0.000000e+00, %.preheader30.i ], [ %39, %32 ], [ %27, %9 ]
  %.sroa.8.1 = phi double [ 0.000000e+00, %.preheader.i ], [ 0.000000e+00, %.preheader30.i ], [ %43, %32 ], [ %29, %9 ]
  %.sroa.13.1 = phi double [ 0.000000e+00, %.preheader.i ], [ 0.000000e+00, %.preheader30.i ], [ %47, %32 ], [ %31, %9 ]
  %.1.i = phi double [ 0.000000e+00, %.preheader.i ], [ 0.000000e+00, %.preheader30.i ], [ 0.000000e+00, %32 ], [ %16, %9 ]
  %48 = getelementptr inbounds nuw i8, ptr %0, i64 56
  %49 = load i32, ptr %48, align 8, !tbaa !40
  %50 = icmp sgt i32 %49, 1
  br i1 %50, label %51, label %59

51:                                               ; preds = %_Z20get_sum_of_positionsPA3_KfPfiPd.exit
  store double %.sroa.0.1, ptr %7, align 16, !tbaa !70
  %52 = getelementptr inbounds nuw i8, ptr %7, i64 8
  store double %.sroa.8.1, ptr %52, align 8, !tbaa !70
  %53 = getelementptr inbounds nuw i8, ptr %7, i64 16
  store double %.sroa.13.1, ptr %53, align 16, !tbaa !70
  %54 = getelementptr inbounds nuw i8, ptr %7, i64 24
  store double %.1.i, ptr %54, align 8, !tbaa !70
  call void @_Z8gmx_sumdmPdPK9t_commrec(i64 noundef 4, ptr noundef nonnull %7, ptr noundef nonnull %0)
  %55 = load double, ptr %7, align 16, !tbaa !70
  %56 = load double, ptr %52, align 8, !tbaa !70
  %57 = load double, ptr %53, align 16, !tbaa !70
  %58 = load double, ptr %54, align 8, !tbaa !70
  br label %59

59:                                               ; preds = %51, %_Z20get_sum_of_positionsPA3_KfPfiPd.exit
  %.sroa.0.0 = phi double [ %55, %51 ], [ %.sroa.0.1, %_Z20get_sum_of_positionsPA3_KfPfiPd.exit ]
  %.sroa.8.0 = phi double [ %56, %51 ], [ %.sroa.8.1, %_Z20get_sum_of_positionsPA3_KfPfiPd.exit ]
  %.sroa.13.0 = phi double [ %57, %51 ], [ %.sroa.13.1, %_Z20get_sum_of_positionsPA3_KfPfiPd.exit ]
  %.014 = phi double [ %58, %51 ], [ %.1.i, %_Z20get_sum_of_positionsPA3_KfPfiPd.exit ]
  %60 = sitofp i32 %4 to double
  %.014.pn = select i1 %.not.i, double %60, double %.014
  %.0 = fdiv double 1.000000e+00, %.014.pn
  %61 = fmul double %.sroa.0.0, %.0
  %62 = fptrunc double %61 to float
  store float %62, ptr %5, align 4, !tbaa !37
  %63 = fmul double %.sroa.8.0, %.0
  %64 = fptrunc double %63 to float
  %65 = getelementptr inbounds nuw i8, ptr %5, i64 4
  store float %64, ptr %65, align 4, !tbaa !37
  %66 = fmul double %.sroa.13.0, %.0
  %67 = fptrunc double %66 to float
  %68 = getelementptr inbounds nuw i8, ptr %5, i64 8
  store float %67, ptr %68, align 4, !tbaa !37
  call void @llvm.lifetime.end.p0(i64 32, ptr nonnull %7) #10
  ret void
}